; Function Attrs: mustprogress uwtable
define noundef zeroext i1 @_ZN5draco17WriteBufferToFileEPKvmRKNSt7__cxx1112basic_stringIcSt11char_traitsIcESaIcEEE(ptr noundef %0, i64 noundef %1, ptr noundef nonnull align 8 dereferenceable(32) %2) local_unnamed_addr #3 personality ptr @__gxx_personality_v0 {
  %4 = alloca %"class.std::unique_ptr.2", align 8
  call void @llvm.lifetime.start.p0(i64 8, ptr nonnull %4)
  call void @_ZN5draco17FileWriterFactory10OpenWriterERKNSt7__cxx1112basic_stringIcSt11char_traitsIcESaIcEEE(ptr dead_on_unwind nonnull writable sret(%"class.std::unique_ptr.2") align 8 %4, ptr noundef nonnull align 8 dereferenceable(32) %2)
  %5 = load ptr, ptr %4, align 8
  %.not.i.i = icmp eq ptr %5, null
  br i1 %.not.i.i, label %_ZN5draco17WriteBufferToFileEPKcmRKNSt7__cxx1112basic_stringIcSt11char_traitsIcESaIcEEE.exit, label %6

6:                                                ; preds = %3
  %7 = load ptr, ptr %5, align 8
  %8 = getelementptr inbounds nuw i8, ptr %7, i64 16
  %9 = load ptr, ptr %8, align 8
  %10 = invoke noundef zeroext i1 %9(ptr noundef nonnull align 8 dereferenceable(8) %5, ptr noundef %0, i64 noundef %1)
          to label %17 unwind label %11

11:                                               ; preds = %6
  %12 = landingpad { ptr, i32 }
          cleanup
  %13 = load ptr, ptr %4, align 8
  %.not.i5.i = icmp eq ptr %13, null
  br i1 %.not.i5.i, label %_ZNSt10unique_ptrIN5draco19FileWriterInterfaceESt14default_deleteIS1_EED2Ev.exit.i, label %_ZNKSt14default_deleteIN5draco19FileWriterInterfaceEEclEPS1_.exit.i.i

_ZNKSt14default_deleteIN5draco19FileWriterInterfaceEEclEPS1_.exit.i.i: ; preds = %11
  %14 = load ptr, ptr %13, align 8
  %15 = getelementptr inbounds nuw i8, ptr %14, i64 8
  %16 = load ptr, ptr %15, align 8
  call void %16(ptr noundef nonnull align 8 dereferenceable(8) %13) #11
  br label %_ZNSt10unique_ptrIN5draco19FileWriterInterfaceESt14default_deleteIS1_EED2Ev.exit.i

_ZNSt10unique_ptrIN5draco19FileWriterInterfaceESt14default_deleteIS1_EED2Ev.exit.i: ; preds = %_ZNKSt14default_deleteIN5draco19FileWriterInterfaceEEclEPS1_.exit.i.i, %11
  resume { ptr, i32 } %12

17:                                               ; preds = %6
  %.pr.i = load ptr, ptr %4, align 8
  %.not.i6.i = icmp eq ptr %.pr.i, null
  br i1 %.not.i6.i, label %_ZN5draco17WriteBufferToFileEPKcmRKNSt7__cxx1112basic_stringIcSt11char_traitsIcESaIcEEE.exit, label %_ZNKSt14default_deleteIN5draco19FileWriterInterfaceEEclEPS1_.exit.i7.i

_ZNKSt14default_deleteIN5draco19FileWriterInterfaceEEclEPS1_.exit.i7.i: ; preds = %17
  %18 = load ptr, ptr %.pr.i, align 8
  %19 = getelementptr inbounds nuw i8, ptr %18, i64 8
  %20 = load ptr, ptr %19, align 8
  call void %20(ptr noundef nonnull align 8 dereferenceable(8) %.pr.i) #11
  br label %_ZN5draco17WriteBufferToFileEPKcmRKNSt7__cxx1112basic_stringIcSt11char_traitsIcESaIcEEE.exit

_ZN5draco17WriteBufferToFileEPKcmRKNSt7__cxx1112basic_stringIcSt11char_traitsIcESaIcEEE.exit: ; preds = %3, %17, %_ZNKSt14default_deleteIN5draco19FileWriterInterfaceEEclEPS1_.exit.i7.i
  %.011.i = phi i1 [ %10, %17 ], [ %10, %_ZNKSt14default_deleteIN5draco19FileWriterInterfaceEEclEPS1_.exit.i7.i ], [ false, %3 ]
  call void @llvm.lifetime.end.p0(i64 8, ptr nonnull %4)
  ret i1 %.011.i
}